; Function Attrs: mustprogress uwtable
define hidden void @_ZN6spacer18hypothesis_reducer6reduceEP3app(ptr dead_on_unwind noalias writable sret(%class.obj_ref) align 8 initializes((0, 16)) %0, ptr noundef nonnull align 8 dereferenceable(184) %1, ptr noundef %2) local_unnamed_addr #3 align 2 personality ptr @__gxx_personality_v0 {
  tail call void @_ZN6spacer18hypothesis_reducer15compute_hypsetsEP3app(ptr noundef nonnull align 8 dereferenceable(184) %1, ptr noundef %2)
  tail call void @_ZN6spacer18hypothesis_reducer13collect_unitsEP3app(ptr noundef nonnull align 8 dereferenceable(184) %1, ptr noundef %2)
  %4 = tail call noundef ptr @_ZN6spacer18hypothesis_reducer11reduce_coreEP3app(ptr noundef nonnull align 8 dereferenceable(184) %1, ptr noundef %2)
  %5 = load ptr, ptr %1, align 8, !tbaa !213
  store ptr %4, ptr %0, align 8, !tbaa !138
  %6 = getelementptr inbounds nuw i8, ptr %0, i64 8
  store ptr %5, ptr %6, align 8, !tbaa !140
  %.not.i.i = icmp eq ptr %4, null
  br i1 %.not.i.i, label %_ZN7obj_refI3app11ast_managerEC2EPS0_RS1_.exit, label %_ZN11ast_manager7inc_refEP3ast.exit.i.i

_ZN11ast_manager7inc_refEP3ast.exit.i.i:          ; preds = %3
  %7 = getelementptr inbounds nuw i8, ptr %4, i64 8
  %8 = load i32, ptr %7, align 4, !tbaa !56
  %9 = add i32 %8, 1
  store i32 %9, ptr %7, align 4, !tbaa !56
  br label %_ZN7obj_refI3app11ast_managerEC2EPS0_RS1_.exit

_ZN7obj_refI3app11ast_managerEC2EPS0_RS1_.exit:   ; preds = %3, %_ZN11ast_manager7inc_refEP3ast.exit.i.i
  invoke void @_ZN6spacer18hypothesis_reducer5resetEv(ptr noundef nonnull align 8 dereferenceable(184) %1)
          to label %12 unwind label %10

10:                                               ; preds = %_ZN7obj_refI3app11ast_managerEC2EPS0_RS1_.exit
  %11 = landingpad { ptr, i32 }
          cleanup
  tail call void @_ZN7obj_refI3app11ast_managerED2Ev(ptr noundef nonnull align 8 dereferenceable(16) %0) #23
  resume { ptr, i32 } %11

12:                                               ; preds = %_ZN7obj_refI3app11ast_managerEC2EPS0_RS1_.exit
  ret void
}